target datalayout = "e-m:e-p270:32:32-p271:32:32-p272:64:64-i64:64-i128:128-f80:128-n8:16:32:64-S128"
target triple = "x86_64-pc-linux-gnu"

%struct.mbedtls_psa_hash_operation_t = type { i32, %union.anon }
%union.anon = type { %struct.mbedtls_sha512_context }
%struct.mbedtls_sha512_context = type { [2 x i64], [8 x i64], [128 x i8], i32 }

; Function Attrs: nounwind uwtable
define hidden i32 @mbedtls_psa_hash_setup(ptr noundef %0, i32 noundef %1) #0 {
  %3 = alloca i32, align 4
  %4 = alloca ptr, align 8
  %5 = alloca i32, align 4
  %6 = alloca i32, align 4
  %7 = alloca i32, align 4
  store ptr %0, ptr %4, align 8, !tbaa !3
  store i32 %1, ptr %5, align 4, !tbaa !10
  call void @llvm.lifetime.start.p0(i64 4, ptr %6) #4
  store i32 -110, ptr %6, align 4, !tbaa !10
  %8 = load ptr, ptr %4, align 8, !tbaa !3
  %9 = getelementptr inbounds nuw %struct.mbedtls_psa_hash_operation_t, ptr %8, i32 0, i32 0
  %10 = load i32, ptr %9, align 8, !tbaa !7
  %11 = icmp ne i32 %10, 0
  br i1 %11, label %12, label %13

12:                                               ; preds = %2
  store i32 -137, ptr %3, align 4
  store i32 1, ptr %7, align 4
  br label %99

13:                                               ; preds = %2
  %14 = load i32, ptr %5, align 4, !tbaa !10
  switch i32 %14, label %81 [
    i32 33554435, label %15
    i32 33554436, label %21
    i32 33554437, label %27
    i32 33554440, label %33
    i32 33554441, label %39
    i32 33554442, label %45
    i32 33554443, label %51
    i32 33554448, label %57
    i32 33554449, label %63
    i32 33554450, label %69
    i32 33554451, label %75
  ]

15:                                               ; preds = %13
  %16 = load ptr, ptr %4, align 8, !tbaa !3
  %17 = getelementptr inbounds nuw %struct.mbedtls_psa_hash_operation_t, ptr %16, i32 0, i32 1
  call void @mbedtls_md5_init(ptr noundef %17)
  %18 = load ptr, ptr %4, align 8, !tbaa !3
  %19 = getelementptr inbounds nuw %struct.mbedtls_psa_hash_operation_t, ptr %18, i32 0, i32 1
  %20 = call i32 @mbedtls_md5_starts(ptr noundef %19)
  store i32 %20, ptr %6, align 4, !tbaa !10
  br label %86

21:                                               ; preds = %13
  %22 = load ptr, ptr %4, align 8, !tbaa !3
  %23 = getelementptr inbounds nuw %struct.mbedtls_psa_hash_operation_t, ptr %22, i32 0, i32 1
  call void @mbedtls_ripemd160_init(ptr noundef %23)
  %24 = load ptr, ptr %4, align 8, !tbaa !3
  %25 = getelementptr inbounds nuw %struct.mbedtls_psa_hash_operation_t, ptr %24, i32 0, i32 1
  %26 = call i32 @mbedtls_ripemd160_starts(ptr noundef %25)
  store i32 %26, ptr %6, align 4, !tbaa !10
  br label %86

27:                                               ; preds = %13
  %28 = load ptr, ptr %4, align 8, !tbaa !3
  %29 = getelementptr inbounds nuw %struct.mbedtls_psa_hash_operation_t, ptr %28, i32 0, i32 1
  call void @mbedtls_sha1_init(ptr noundef %29)
  %30 = load ptr, ptr %4, align 8, !tbaa !3
  %31 = getelementptr inbounds nuw %struct.mbedtls_psa_hash_operation_t, ptr %30, i32 0, i32 1
  %32 = call i32 @mbedtls_sha1_starts(ptr noundef %31)
  store i32 %32, ptr %6, align 4, !tbaa !10
  br label %86

33:                                               ; preds = %13
  %34 = load ptr, ptr %4, align 8, !tbaa !3
  %35 = getelementptr inbounds nuw %struct.mbedtls_psa_hash_operation_t, ptr %34, i32 0, i32 1
  call void @mbedtls_sha256_init(ptr noundef %35)
  %36 = load ptr, ptr %4, align 8, !tbaa !3
  %37 = getelementptr inbounds nuw %struct.mbedtls_psa_hash_operation_t, ptr %36, i32 0, i32 1
  %38 = call i32 @mbedtls_sha256_starts(ptr noundef %37, i32 noundef 1)
  store i32 %38, ptr %6, align 4, !tbaa !10
  br label %86

39:                                               ; preds = %13
  %40 = load ptr, ptr %4, align 8, !tbaa !3
  %41 = getelementptr inbounds nuw %struct.mbedtls_psa_hash_operation_t, ptr %40, i32 0, i32 1
  call void @mbedtls_sha256_init(ptr noundef %41)
  %42 = load ptr, ptr %4, align 8, !tbaa !3
  %43 = getelementptr inbounds nuw %struct.mbedtls_psa_hash_operation_t, ptr %42, i32 0, i32 1
  %44 = call i32 @mbedtls_sha256_starts(ptr noundef %43, i32 noundef 0)
  store i32 %44, ptr %6, align 4, !tbaa !10
  br label %86

45:                                               ; preds = %13
  %46 = load ptr, ptr %4, align 8, !tbaa !3
  %47 = getelementptr inbounds nuw %struct.mbedtls_psa_hash_operation_t, ptr %46, i32 0, i32 1
  call void @mbedtls_sha512_init(ptr noundef %47)
  %48 = load ptr, ptr %4, align 8, !tbaa !3
  %49 = getelementptr inbounds nuw %struct.mbedtls_psa_hash_operation_t, ptr %48, i32 0, i32 1
  %50 = call i32 @mbedtls_sha512_starts(ptr noundef %49, i32 noundef 1)
  store i32 %50, ptr %6, align 4, !tbaa !10
  br label %86

51:                                               ; preds = %13
  %52 = load ptr, ptr %4, align 8, !tbaa !3
  %53 = getelementptr inbounds nuw %struct.mbedtls_psa_hash_operation_t, ptr %52, i32 0, i32 1
  call void @mbedtls_sha512_init(ptr noundef %53)
  %54 = load ptr, ptr %4, align 8, !tbaa !3
  %55 = getelementptr inbounds nuw %struct.mbedtls_psa_hash_operation_t, ptr %54, i32 0, i32 1
  %56 = call i32 @mbedtls_sha512_starts(ptr noundef %55, i32 noundef 0)
  store i32 %56, ptr %6, align 4, !tbaa !10
  br label %86

57:                                               ; preds = %13
  %58 = load ptr, ptr %4, align 8, !tbaa !3
  %59 = getelementptr inbounds nuw %struct.mbedtls_psa_hash_operation_t, ptr %58, i32 0, i32 1
  call void @mbedtls_sha3_init(ptr noundef %59)
  %60 = load ptr, ptr %4, align 8, !tbaa !3
  %61 = getelementptr inbounds nuw %struct.mbedtls_psa_hash_operation_t, ptr %60, i32 0, i32 1
  %62 = call i32 @mbedtls_sha3_starts(ptr noundef %61, i32 noundef 1)
  store i32 %62, ptr %6, align 4, !tbaa !10
  br label %86

63:                                               ; preds = %13
  %64 = load ptr, ptr %4, align 8, !tbaa !3
  %65 = getelementptr inbounds nuw %struct.mbedtls_psa_hash_operation_t, ptr %64, i32 0, i32 1
  call void @mbedtls_sha3_init(ptr noundef %65)
  %66 = load ptr, ptr %4, align 8, !tbaa !3
  %67 = getelementptr inbounds nuw %struct.mbedtls_psa_hash_operation_t, ptr %66, i32 0, i32 1
  %68 = call i32 @mbedtls_sha3_starts(ptr noundef %67, i32 noundef 2)
  store i32 %68, ptr %6, align 4, !tbaa !10
  br label %86

69:                                               ; preds = %13
  %70 = load ptr, ptr %4, align 8, !tbaa !3
  %71 = getelementptr inbounds nuw %struct.mbedtls_psa_hash_operation_t, ptr %70, i32 0, i32 1
  call void @mbedtls_sha3_init(ptr noundef %71)
  %72 = load ptr, ptr %4, align 8, !tbaa !3
  %73 = getelementptr inbounds nuw %struct.mbedtls_psa_hash_operation_t, ptr %72, i32 0, i32 1
  %74 = call i32 @mbedtls_sha3_starts(ptr noundef %73, i32 noundef 3)
  store i32 %74, ptr %6, align 4, !tbaa !10
  br label %86

75:                                               ; preds = %13
  %76 = load ptr, ptr %4, align 8, !tbaa !3
  %77 = getelementptr inbounds nuw %struct.mbedtls_psa_hash_operation_t, ptr %76, i32 0, i32 1
  call void @mbedtls_sha3_init(ptr noundef %77)
  %78 = load ptr, ptr %4, align 8, !tbaa !3
  %79 = getelementptr inbounds nuw %struct.mbedtls_psa_hash_operation_t, ptr %78, i32 0, i32 1
  %80 = call i32 @mbedtls_sha3_starts(ptr noundef %79, i32 noundef 4)
  store i32 %80, ptr %6, align 4, !tbaa !10
  br label %86

81:                                               ; preds = %13
  %82 = load i32, ptr %5, align 4, !tbaa !10
  %83 = and i32 %82, 2130706432
  %84 = icmp eq i32 %83, 33554432
  %85 = select i1 %84, i32 -134, i32 -135
  store i32 %85, ptr %3, align 4
  store i32 1, ptr %7, align 4
  br label %99

86:                                               ; preds = %75, %69, %63, %57, %51, %45, %39, %33, %27, %21, %15
  %87 = load i32, ptr %6, align 4, !tbaa !10
  %88 = icmp eq i32 %87, 0
  br i1 %88, label %89, label %93

89:                                               ; preds = %86
  %90 = load i32, ptr %5, align 4, !tbaa !10
  %91 = load ptr, ptr %4, align 8, !tbaa !3
  %92 = getelementptr inbounds nuw %struct.mbedtls_psa_hash_operation_t, ptr %91, i32 0, i32 0
  store i32 %90, ptr %92, align 8, !tbaa !7
  br label %96

93:                                               ; preds = %86
  %94 = load ptr, ptr %4, align 8, !tbaa !3
  %95 = call i32 @mbedtls_psa_hash_abort(ptr noundef %94)
  br label %96

96:                                               ; preds = %93, %89
  %97 = load i32, ptr %6, align 4, !tbaa !10
  %98 = call i32 @mbedtls_to_psa_error(i32 noundef %97)
  store i32 %98, ptr %3, align 4
  store i32 1, ptr %7, align 4
  br label %99

99:                                               ; preds = %96, %81, %12
  call void @llvm.lifetime.end.p0(i64 4, ptr %6) #4
  %100 = load i32, ptr %3, align 4
  ret i32 %100
}