; Function Attrs: nounwind uwtable
define hidden i32 @mbedtls_psa_hash_setup(ptr noundef %0, i32 noundef %1) local_unnamed_addr #0 {
  %3 = load i32, ptr %0, align 8, !tbaa !3
  %.not = icmp eq i32 %3, 0
  br i1 %.not, label %4, label %49

4:                                                ; preds = %2
  switch i32 %1, label %38 [
    i32 33554435, label %5
    i32 33554436, label %8
    i32 33554437, label %11
    i32 33554440, label %14
    i32 33554441, label %17
    i32 33554442, label %20
    i32 33554443, label %23
    i32 33554448, label %26
    i32 33554449, label %29
    i32 33554450, label %32
    i32 33554451, label %35
  ]

5:                                                ; preds = %4
  %6 = getelementptr inbounds nuw i8, ptr %0, i64 8
  tail call void @mbedtls_md5_init(ptr noundef nonnull %6) #4
  %7 = tail call i32 @mbedtls_md5_starts(ptr noundef nonnull %6) #4
  br label %42

8:                                                ; preds = %4
  %9 = getelementptr inbounds nuw i8, ptr %0, i64 8
  tail call void @mbedtls_ripemd160_init(ptr noundef nonnull %9) #4
  %10 = tail call i32 @mbedtls_ripemd160_starts(ptr noundef nonnull %9) #4
  br label %42

11:                                               ; preds = %4
  %12 = getelementptr inbounds nuw i8, ptr %0, i64 8
  tail call void @mbedtls_sha1_init(ptr noundef nonnull %12) #4
  %13 = tail call i32 @mbedtls_sha1_starts(ptr noundef nonnull %12) #4
  br label %42

14:                                               ; preds = %4
  %15 = getelementptr inbounds nuw i8, ptr %0, i64 8
  tail call void @mbedtls_sha256_init(ptr noundef nonnull %15) #4
  %16 = tail call i32 @mbedtls_sha256_starts(ptr noundef nonnull %15, i32 noundef 1) #4
  br label %42

17:                                               ; preds = %4
  %18 = getelementptr inbounds nuw i8, ptr %0, i64 8
  tail call void @mbedtls_sha256_init(ptr noundef nonnull %18) #4
  %19 = tail call i32 @mbedtls_sha256_starts(ptr noundef nonnull %18, i32 noundef 0) #4
  br label %42

20:                                               ; preds = %4
  %21 = getelementptr inbounds nuw i8, ptr %0, i64 8
  tail call void @mbedtls_sha512_init(ptr noundef nonnull %21) #4
  %22 = tail call i32 @mbedtls_sha512_starts(ptr noundef nonnull %21, i32 noundef 1) #4
  br label %42

23:                                               ; preds = %4
  %24 = getelementptr inbounds nuw i8, ptr %0, i64 8
  tail call void @mbedtls_sha512_init(ptr noundef nonnull %24) #4
  %25 = tail call i32 @mbedtls_sha512_starts(ptr noundef nonnull %24, i32 noundef 0) #4
  br label %42

26:                                               ; preds = %4
  %27 = getelementptr inbounds nuw i8, ptr %0, i64 8
  tail call void @mbedtls_sha3_init(ptr noundef nonnull %27) #4
  %28 = tail call i32 @mbedtls_sha3_starts(ptr noundef nonnull %27, i32 noundef 1) #4
  br label %42

29:                                               ; preds = %4
  %30 = getelementptr inbounds nuw i8, ptr %0, i64 8
  tail call void @mbedtls_sha3_init(ptr noundef nonnull %30) #4
  %31 = tail call i32 @mbedtls_sha3_starts(ptr noundef nonnull %30, i32 noundef 2) #4
  br label %42

32:                                               ; preds = %4
  %33 = getelementptr inbounds nuw i8, ptr %0, i64 8
  tail call void @mbedtls_sha3_init(ptr noundef nonnull %33) #4
  %34 = tail call i32 @mbedtls_sha3_starts(ptr noundef nonnull %33, i32 noundef 3) #4
  br label %42

35:                                               ; preds = %4
  %36 = getelementptr inbounds nuw i8, ptr %0, i64 8
  tail call void @mbedtls_sha3_init(ptr noundef nonnull %36) #4
  %37 = tail call i32 @mbedtls_sha3_starts(ptr noundef nonnull %36, i32 noundef 4) #4
  br label %42

38:                                               ; preds = %4
  %39 = and i32 %1, 2130706432
  %40 = icmp eq i32 %39, 33554432
  %41 = select i1 %40, i32 -134, i32 -135
  br label %49

42:                                               ; preds = %35, %32, %29, %26, %23, %20, %17, %14, %11, %8, %5
  %.0 = phi i32 [ %37, %35 ], [ %34, %32 ], [ %31, %29 ], [ %28, %26 ], [ %25, %23 ], [ %22, %20 ], [ %19, %17 ], [ %16, %14 ], [ %13, %11 ], [ %10, %8 ], [ %7, %5 ]
  %43 = icmp eq i32 %.0, 0
  br i1 %43, label %44, label %45

44:                                               ; preds = %42
  store i32 %1, ptr %0, align 8, !tbaa !3
  br label %47

45:                                               ; preds = %42
  %46 = tail call i32 @mbedtls_psa_hash_abort(ptr noundef nonnull %0)
  br label %47

47:                                               ; preds = %45, %44
  %48 = tail call i32 @mbedtls_to_psa_error(i32 noundef %.0) #4
  br label %49

49:                                               ; preds = %2, %47, %38
  %.030 = phi i32 [ %41, %38 ], [ %48, %47 ], [ -137, %2 ]
  ret i32 %.030
}